; ModuleID = '27/2081.c'
source_filename = "27/2081.c"
target datalayout = "e-m:e-p270:32:32-p271:32:32-p272:64:64-i64:64-f80:128-n8:16:32:64-S128"
target triple = "x86_64-pc-linux-gnu"

@.str = private unnamed_addr constant [3 x i8] c"%d\00", align 1
@.str.1 = private unnamed_addr constant [10 x i8] c"%lf%lf%lf\00", align 1
@.str.2 = private unnamed_addr constant [19 x i8] c"x1=%.5lf;x2=%.5lf\0A\00", align 1
@.str.3 = private unnamed_addr constant [13 x i8] c"x1=x2=%.5lf\0A\00", align 1
@.str.4 = private unnamed_addr constant [33 x i8] c"x1=%.5lf+%.5lfi;x2=%.5lf-%.5lfi\0A\00", align 1

; Function Attrs: noinline nounwind uwtable
define dso_local i32 @main() #0 {
  %1 = alloca i32, align 4
  %2 = alloca i32, align 4
  %3 = alloca i32, align 4
  %4 = alloca [100 x double], align 16
  %5 = alloca [100 x double], align 16
  %6 = alloca [100 x double], align 16
  %7 = alloca [100 x double], align 16
  %8 = alloca [100 x double], align 16
  %9 = alloca [100 x double], align 16
  %10 = alloca [100 x double], align 16
  %11 = alloca [100 x double], align 16
  store i32 0, i32* %1, align 4
  %12 = call i32 (i8*, ...) @__isoc99_scanf(i8* getelementptr inbounds ([3 x i8], [3 x i8]* @.str, i64 0, i64 0), i32* %2)
  store i32 0, i32* %3, align 4
  br label %13

13:                                               ; preds = %28, %0
  %14 = load i32, i32* %3, align 4
  %15 = load i32, i32* %2, align 4
  %16 = icmp slt i32 %14, %15
  br i1 %16, label %17, label %31

17:                                               ; preds = %13
  %18 = load i32, i32* %3, align 4
  %19 = sext i32 %18 to i64
  %20 = getelementptr inbounds [100 x double], [100 x double]* %9, i64 0, i64 %19
  %21 = load i32, i32* %3, align 4
  %22 = sext i32 %21 to i64
  %23 = getelementptr inbounds [100 x double], [100 x double]* %10, i64 0, i64 %22
  %24 = load i32, i32* %3, align 4
  %25 = sext i32 %24 to i64
  %26 = getelementptr inbounds [100 x double], [100 x double]* %11, i64 0, i64 %25
  %27 = call i32 (i8*, ...) @__isoc99_scanf(i8* getelementptr inbounds ([10 x i8], [10 x i8]* @.str.1, i64 0, i64 0), double* %20, double* %23, double* %26)
  br label %28

28:                                               ; preds = %17
  %29 = load i32, i32* %3, align 4
  %30 = add nsw i32 %29, 1
  store i32 %30, i32* %3, align 4
  br label %13

31:                                               ; preds = %13
  store i32 0, i32* %3, align 4
  br label %32

32:                                               ; preds = %193, %31
  %33 = load i32, i32* %3, align 4
  %34 = load i32, i32* %2, align 4
  %35 = icmp slt i32 %33, %34
  br i1 %35, label %36, label %196

36:                                               ; preds = %32
  %37 = load i32, i32* %3, align 4
  %38 = sext i32 %37 to i64
  %39 = getelementptr inbounds [100 x double], [100 x double]* %10, i64 0, i64 %38
  %40 = load double, double* %39, align 8
  %41 = call double @pow(double %40, double 2.000000e+00) #3
  %42 = load i32, i32* %3, align 4
  %43 = sext i32 %42 to i64
  %44 = getelementptr inbounds [100 x double], [100 x double]* %9, i64 0, i64 %43
  %45 = load double, double* %44, align 8
  %46 = fmul double 4.000000e+00, %45
  %47 = load i32, i32* %3, align 4
  %48 = sext i32 %47 to i64
  %49 = getelementptr inbounds [100 x double], [100 x double]* %11, i64 0, i64 %48
  %50 = load double, double* %49, align 8
  %51 = fmul double %46, %50
  %52 = fsub double %41, %51
  %53 = load i32, i32* %3, align 4
  %54 = sext i32 %53 to i64
  %55 = getelementptr inbounds [100 x double], [100 x double]* %6, i64 0, i64 %54
  store double %52, double* %55, align 8
  %56 = load i32, i32* %3, align 4
  %57 = sext i32 %56 to i64
  %58 = getelementptr inbounds [100 x double], [100 x double]* %6, i64 0, i64 %57
  %59 = load double, double* %58, align 8
  %60 = fcmp ogt double %59, 0.000000e+00
  br i1 %60, label %61, label %111

61:                                               ; preds = %36
  %62 = load i32, i32* %3, align 4
  %63 = sext i32 %62 to i64
  %64 = getelementptr inbounds [100 x double], [100 x double]* %10, i64 0, i64 %63
  %65 = load double, double* %64, align 8
  %66 = fsub double 0.000000e+00, %65
  %67 = load i32, i32* %3, align 4
  %68 = sext i32 %67 to i64
  %69 = getelementptr inbounds [100 x double], [100 x double]* %6, i64 0, i64 %68
  %70 = load double, double* %69, align 8
  %71 = call double @sqrt(double %70) #3
  %72 = fadd double %66, %71
  %73 = load i32, i32* %3, align 4
  %74 = sext i32 %73 to i64
  %75 = getelementptr inbounds [100 x double], [100 x double]* %9, i64 0, i64 %74
  %76 = load double, double* %75, align 8
  %77 = fmul double 2.000000e+00, %76
  %78 = fdiv double %72, %77
  %79 = load i32, i32* %3, align 4
  %80 = sext i32 %79 to i64
  %81 = getelementptr inbounds [100 x double], [100 x double]* %7, i64 0, i64 %80
  store double %78, double* %81, align 8
  %82 = load i32, i32* %3, align 4
  %83 = sext i32 %82 to i64
  %84 = getelementptr inbounds [100 x double], [100 x double]* %10, i64 0, i64 %83
  %85 = load double, double* %84, align 8
  %86 = fsub double 0.000000e+00, %85
  %87 = load i32, i32* %3, align 4
  %88 = sext i32 %87 to i64
  %89 = getelementptr inbounds [100 x double], [100 x double]* %6, i64 0, i64 %88
  %90 = load double, double* %89, align 8
  %91 = call double @sqrt(double %90) #3
  %92 = fsub double %86, %91
  %93 = load i32, i32* %3, align 4
  %94 = sext i32 %93 to i64
  %95 = getelementptr inbounds [100 x double], [100 x double]* %9, i64 0, i64 %94
  %96 = load double, double* %95, align 8
  %97 = fmul double 2.000000e+00, %96
  %98 = fdiv double %92, %97
  %99 = load i32, i32* %3, align 4
  %100 = sext i32 %99 to i64
  %101 = getelementptr inbounds [100 x double], [100 x double]* %8, i64 0, i64 %100
  store double %98, double* %101, align 8
  %102 = load i32, i32* %3, align 4
  %103 = sext i32 %102 to i64
  %104 = getelementptr inbounds [100 x double], [100 x double]* %7, i64 0, i64 %103
  %105 = load double, double* %104, align 8
  %106 = load i32, i32* %3, align 4
  %107 = sext i32 %106 to i64
  %108 = getelementptr inbounds [100 x double], [100 x double]* %8, i64 0, i64 %107
  %109 = load double, double* %108, align 8
  %110 = call i32 (i8*, ...) @printf(i8* getelementptr inbounds ([19 x i8], [19 x i8]* @.str.2, i64 0, i64 0), double %105, double %109)
  br label %192

111:                                              ; preds = %36
  %112 = load i32, i32* %3, align 4
  %113 = sext i32 %112 to i64
  %114 = getelementptr inbounds [100 x double], [100 x double]* %6, i64 0, i64 %113
  %115 = load double, double* %114, align 8
  %116 = fcmp oeq double %115, 0.000000e+00
  br i1 %116, label %117, label %137

117:                                              ; preds = %111
  %118 = load i32, i32* %3, align 4
  %119 = sext i32 %118 to i64
  %120 = getelementptr inbounds [100 x double], [100 x double]* %10, i64 0, i64 %119
  %121 = load double, double* %120, align 8
  %122 = fsub double 0.000000e+00, %121
  %123 = load i32, i32* %3, align 4
  %124 = sext i32 %123 to i64
  %125 = getelementptr inbounds [100 x double], [100 x double]* %9, i64 0, i64 %124
  %126 = load double, double* %125, align 8
  %127 = fmul double 2.000000e+00, %126
  %128 = fdiv double %122, %127
  %129 = load i32, i32* %3, align 4
  %130 = sext i32 %129 to i64
  %131 = getelementptr inbounds [100 x double], [100 x double]* %7, i64 0, i64 %130
  store double %128, double* %131, align 8
  %132 = load i32, i32* %3, align 4
  %133 = sext i32 %132 to i64
  %134 = getelementptr inbounds [100 x double], [100 x double]* %7, i64 0, i64 %133
  %135 = load double, double* %134, align 8
  %136 = call i32 (i8*, ...) @printf(i8* getelementptr inbounds ([13 x i8], [13 x i8]* @.str.3, i64 0, i64 0), double %135)
  br label %191

137:                                              ; preds = %111
  %138 = load i32, i32* %3, align 4
  %139 = sext i32 %138 to i64
  %140 = getelementptr inbounds [100 x double], [100 x double]* %6, i64 0, i64 %139
  %141 = load double, double* %140, align 8
  %142 = fcmp olt double %141, 0.000000e+00
  br i1 %142, label %143, label %190

143:                                              ; preds = %137
  %144 = load i32, i32* %3, align 4
  %145 = sext i32 %144 to i64
  %146 = getelementptr inbounds [100 x double], [100 x double]* %10, i64 0, i64 %145
  %147 = load double, double* %146, align 8
  %148 = fsub double 0.000000e+00, %147
  %149 = load i32, i32* %3, align 4
  %150 = sext i32 %149 to i64
  %151 = getelementptr inbounds [100 x double], [100 x double]* %9, i64 0, i64 %150
  %152 = load double, double* %151, align 8
  %153 = fmul double 2.000000e+00, %152
  %154 = fdiv double %148, %153
  %155 = load i32, i32* %3, align 4
  %156 = sext i32 %155 to i64
  %157 = getelementptr inbounds [100 x double], [100 x double]* %4, i64 0, i64 %156
  store double %154, double* %157, align 8
  %158 = load i32, i32* %3, align 4
  %159 = sext i32 %158 to i64
  %160 = getelementptr inbounds [100 x double], [100 x double]* %6, i64 0, i64 %159
  %161 = load double, double* %160, align 8
  %162 = fsub double 0.000000e+00, %161
  %163 = call double @sqrt(double %162) #3
  %164 = load i32, i32* %3, align 4
  %165 = sext i32 %164 to i64
  %166 = getelementptr inbounds [100 x double], [100 x double]* %9, i64 0, i64 %165
  %167 = load double, double* %166, align 8
  %168 = fmul double 2.000000e+00, %167
  %169 = fdiv double %163, %168
  %170 = load i32, i32* %3, align 4
  %171 = sext i32 %170 to i64
  %172 = getelementptr inbounds [100 x double], [100 x double]* %5, i64 0, i64 %171
  store double %169, double* %172, align 8
  %173 = load i32, i32* %3, align 4
  %174 = sext i32 %173 to i64
  %175 = getelementptr inbounds [100 x double], [100 x double]* %4, i64 0, i64 %174
  %176 = load double, double* %175, align 8
  %177 = load i32, i32* %3, align 4
  %178 = sext i32 %177 to i64
  %179 = getelementptr inbounds [100 x double], [100 x double]* %5, i64 0, i64 %178
  %180 = load double, double* %179, align 8
  %181 = load i32, i32* %3, align 4
  %182 = sext i32 %181 to i64
  %183 = getelementptr inbounds [100 x double], [100 x double]* %4, i64 0, i64 %182
  %184 = load double, double* %183, align 8
  %185 = load i32, i32* %3, align 4
  %186 = sext i32 %185 to i64
  %187 = getelementptr inbounds [100 x double], [100 x double]* %5, i64 0, i64 %186
  %188 = load double, double* %187, align 8
  %189 = call i32 (i8*, ...) @printf(i8* getelementptr inbounds ([33 x i8], [33 x i8]* @.str.4, i64 0, i64 0), double %176, double %180, double %184, double %188)
  br label %190

190:                                              ; preds = %143, %137
  br label %191

191:                                              ; preds = %190, %117
  br label %192

192:                                              ; preds = %191, %61
  br label %193

193:                                              ; preds = %192
  %194 = load i32, i32* %3, align 4
  %195 = add nsw i32 %194, 1
  store i32 %195, i32* %3, align 4
  br label %32

196:                                              ; preds = %32
  ret i32 0
}

declare dso_local i32 @__isoc99_scanf(i8*, ...) #1

; Function Attrs: nounwind
declare dso_local double @pow(double, double) #2

; Function Attrs: nounwind
declare dso_local double @sqrt(double) #2

declare dso_local i32 @printf(i8*, ...) #1


!llvm.module.flags = !{!0}
!llvm.ident = !{!1}

!0 = !{i32 1, !"wchar_size", i32 4}
!1 = !{!"clang version 10.0.0-4ubuntu1 "}
